target datalayout = "e-m:e-p270:32:32-p271:32:32-p272:64:64-i64:64-i128:128-f80:128-n8:16:32:64-S128"
target triple = "x86_64-pc-linux-gnu"

%struct.cmsysProcess_s = type { ptr, i32, [3 x i32], [3 x i32], i32, [1024 x i8], ptr, i32, double, ptr, i32, i32, i32, i32, i32, %struct.kwsysProcessTime_s, %struct.kwsysProcessTime_s, i32, i32, %struct.fd_set, i32, i32, i32, [1025 x i8], ptr, ptr, ptr, ptr, ptr, i32, i32, i32, [2 x i32], [2 x i32], [2 x i32], i32, ptr }
%struct.kwsysProcessTime_s = type { i64, i64 }
%struct.fd_set = type { [16 x i64] }

; Function Attrs: nounwind uwtable
define internal void @kwsysProcessCleanupDescriptor(ptr noundef %0) #0 {
  %2 = alloca ptr, align 8
  store ptr %0, ptr %2, align 8, !tbaa !56
  %3 = load ptr, ptr %2, align 8, !tbaa !56
  %4 = icmp ne ptr %3, null
  br i1 %4, label %5, label %24

5:                                                ; preds = %1
  %6 = load ptr, ptr %2, align 8, !tbaa !56
  %7 = load i32, ptr %6, align 4, !tbaa !20
  %8 = icmp sgt i32 %7, 2
  br i1 %8, label %9, label %24

9:                                                ; preds = %5
  br label %10

10:                                               ; preds = %21, %9
  %11 = load ptr, ptr %2, align 8, !tbaa !56
  %12 = load i32, ptr %11, align 4, !tbaa !20
  %13 = call i32 @close(i32 noundef %12)
  %14 = icmp slt i32 %13, 0
  br i1 %14, label %15, label %19

15:                                               ; preds = %10
  %16 = call ptr @__errno_location() #14
  %17 = load i32, ptr %16, align 4, !tbaa !20
  %18 = icmp eq i32 %17, 4
  br label %19

19:                                               ; preds = %15, %10
  %20 = phi i1 [ false, %10 ], [ %18, %15 ]
  br i1 %20, label %21, label %22

21:                                               ; preds = %19
  br label %10, !llvm.loop !107

22:                                               ; preds = %19
  %23 = load ptr, ptr %2, align 8, !tbaa !56
  store i32 -1, ptr %23, align 4, !tbaa !20
  br label %24

24:                                               ; preds = %22, %5, %1
  ret void
}

; Function Attrs: nounwind uwtable
define internal void @kwsysProcessClosePipes(ptr noundef %0) #0 {
  %2 = alloca ptr, align 8
  %3 = alloca i32, align 4
  store ptr %0, ptr %2, align 8, !tbaa !4
  call void @llvm.lifetime.start.p0(i64 4, ptr %3) #11
  store i32 0, ptr %3, align 4, !tbaa !20
  br label %4

4:                                                ; preds = %96, %1
  %5 = load i32, ptr %3, align 4, !tbaa !20
  %6 = icmp slt i32 %5, 3
  br i1 %6, label %7, label %99

7:                                                ; preds = %4
  %8 = load ptr, ptr %2, align 8, !tbaa !4
  %9 = getelementptr inbounds nuw %struct.cmsysProcess_s, ptr %8, i32 0, i32 2
  %10 = load i32, ptr %3, align 4, !tbaa !20
  %11 = sext i32 %10 to i64
  %12 = getelementptr inbounds [3 x i32], ptr %9, i64 0, i64 %11
  %13 = load i32, ptr %12, align 4, !tbaa !20
  %14 = icmp sge i32 %13, 0
  br i1 %14, label %15, label %95

15:                                               ; preds = %7
  %16 = load ptr, ptr %2, align 8, !tbaa !4
  %17 = getelementptr inbounds nuw %struct.cmsysProcess_s, ptr %16, i32 0, i32 19
  %18 = getelementptr inbounds nuw %struct.fd_set, ptr %17, i32 0, i32 0
  %19 = load ptr, ptr %2, align 8, !tbaa !4
  %20 = getelementptr inbounds nuw %struct.cmsysProcess_s, ptr %19, i32 0, i32 2
  %21 = load i32, ptr %3, align 4, !tbaa !20
  %22 = sext i32 %21 to i64
  %23 = getelementptr inbounds [3 x i32], ptr %20, i64 0, i64 %22
  %24 = load i32, ptr %23, align 4, !tbaa !20
  %25 = sdiv i32 %24, 64
  %26 = sext i32 %25 to i64
  %27 = getelementptr inbounds [16 x i64], ptr %18, i64 0, i64 %26
  %28 = load i64, ptr %27, align 8, !tbaa !49
  %29 = load ptr, ptr %2, align 8, !tbaa !4
  %30 = getelementptr inbounds nuw %struct.cmsysProcess_s, ptr %29, i32 0, i32 2
  %31 = load i32, ptr %3, align 4, !tbaa !20
  %32 = sext i32 %31 to i64
  %33 = getelementptr inbounds [3 x i32], ptr %30, i64 0, i64 %32
  %34 = load i32, ptr %33, align 4, !tbaa !20
  %35 = srem i32 %34, 64
  %36 = zext i32 %35 to i64
  %37 = shl i64 1, %36
  %38 = and i64 %28, %37
  %39 = icmp ne i64 %38, 0
  br i1 %39, label %40, label %85

40:                                               ; preds = %15
  %41 = load ptr, ptr %2, align 8, !tbaa !4
  %42 = getelementptr inbounds nuw %struct.cmsysProcess_s, ptr %41, i32 0, i32 2
  %43 = load i32, ptr %3, align 4, !tbaa !20
  %44 = sext i32 %43 to i64
  %45 = getelementptr inbounds [3 x i32], ptr %42, i64 0, i64 %44
  %46 = load i32, ptr %45, align 4, !tbaa !20
  %47 = srem i32 %46, 64
  %48 = zext i32 %47 to i64
  %49 = shl i64 1, %48
  %50 = xor i64 %49, -1
  %51 = load ptr, ptr %2, align 8, !tbaa !4
  %52 = getelementptr inbounds nuw %struct.cmsysProcess_s, ptr %51, i32 0, i32 19
  %53 = getelementptr inbounds nuw %struct.fd_set, ptr %52, i32 0, i32 0
  %54 = load ptr, ptr %2, align 8, !tbaa !4
  %55 = getelementptr inbounds nuw %struct.cmsysProcess_s, ptr %54, i32 0, i32 2
  %56 = load i32, ptr %3, align 4, !tbaa !20
  %57 = sext i32 %56 to i64
  %58 = getelementptr inbounds [3 x i32], ptr %55, i64 0, i64 %57
  %59 = load i32, ptr %58, align 4, !tbaa !20
  %60 = sdiv i32 %59, 64
  %61 = sext i32 %60 to i64
  %62 = getelementptr inbounds [16 x i64], ptr %53, i64 0, i64 %61
  %63 = load i64, ptr %62, align 8, !tbaa !49
  %64 = and i64 %63, %50
  store i64 %64, ptr %62, align 8, !tbaa !49
  br label %65

65:                                               ; preds = %83, %40
  %66 = load ptr, ptr %2, align 8, !tbaa !4
  %67 = getelementptr inbounds nuw %struct.cmsysProcess_s, ptr %66, i32 0, i32 2
  %68 = load i32, ptr %3, align 4, !tbaa !20
  %69 = sext i32 %68 to i64
  %70 = getelementptr inbounds [3 x i32], ptr %67, i64 0, i64 %69
  %71 = load i32, ptr %70, align 4, !tbaa !20
  %72 = load ptr, ptr %2, align 8, !tbaa !4
  %73 = getelementptr inbounds nuw %struct.cmsysProcess_s, ptr %72, i32 0, i32 5
  %74 = getelementptr inbounds [1024 x i8], ptr %73, i64 0, i64 0
  %75 = call i64 @read(i32 noundef %71, ptr noundef %74, i64 noundef 1024)
  %76 = icmp slt i64 %75, 0
  br i1 %76, label %77, label %81

77:                                               ; preds = %65
  %78 = call ptr @__errno_location() #14
  %79 = load i32, ptr %78, align 4, !tbaa !20
  %80 = icmp eq i32 %79, 4
  br label %81

81:                                               ; preds = %77, %65
  %82 = phi i1 [ false, %65 ], [ %80, %77 ]
  br i1 %82, label %83, label %84

83:                                               ; preds = %81
  br label %65, !llvm.loop !121

84:                                               ; preds = %81
  br label %85

85:                                               ; preds = %84, %15
  %86 = load ptr, ptr %2, align 8, !tbaa !4
  %87 = getelementptr inbounds nuw %struct.cmsysProcess_s, ptr %86, i32 0, i32 2
  %88 = load i32, ptr %3, align 4, !tbaa !20
  %89 = sext i32 %88 to i64
  %90 = getelementptr inbounds [3 x i32], ptr %87, i64 0, i64 %89
  call void @kwsysProcessCleanupDescriptor(ptr noundef %90)
  %91 = load ptr, ptr %2, align 8, !tbaa !4
  %92 = getelementptr inbounds nuw %struct.cmsysProcess_s, ptr %91, i32 0, i32 18
  %93 = load i32, ptr %92, align 4, !tbaa !77
  %94 = add nsw i32 %93, -1
  store i32 %94, ptr %92, align 4, !tbaa !77
  br label %95

95:                                               ; preds = %85, %7
  br label %96

96:                                               ; preds = %95
  %97 = load i32, ptr %3, align 4, !tbaa !20
  %98 = add nsw i32 %97, 1
  store i32 %98, ptr %3, align 4, !tbaa !20
  br label %4, !llvm.loop !122

99:                                               ; preds = %4
  call void @llvm.lifetime.end.p0(i64 4, ptr %3) #11
  ret void
}