; Function Attrs: nounwind uwtable
define internal fastcc void @kwsysProcessClosePipes(ptr noundef nonnull captures(none) %0) unnamed_addr #4 {
  %2 = getelementptr inbounds nuw i8, ptr %0, i64 12
  %3 = getelementptr inbounds nuw i8, ptr %0, i64 1160
  %4 = getelementptr inbounds nuw i8, ptr %0, i64 40
  %5 = getelementptr inbounds nuw i8, ptr %0, i64 1156
  br label %6

6:                                                ; preds = %1, %41
  %indvars.iv = phi i64 [ 0, %1 ], [ %indvars.iv.next, %41 ]
  %7 = getelementptr inbounds nuw [3 x i32], ptr %2, i64 0, i64 %indvars.iv
  %8 = load i32, ptr %7, align 4, !tbaa !35
  %9 = icmp sgt i32 %8, -1
  br i1 %9, label %10, label %41

10:                                               ; preds = %6
  %11 = lshr i32 %8, 6
  %12 = zext nneg i32 %11 to i64
  %13 = getelementptr inbounds nuw [16 x i64], ptr %3, i64 0, i64 %12
  %14 = load i64, ptr %13, align 8, !tbaa !77
  %15 = and i32 %8, 63
  %16 = zext nneg i32 %15 to i64
  %17 = shl nuw i64 1, %16
  %18 = and i64 %14, %17
  %.not = icmp eq i64 %18, 0
  br i1 %.not, label %.critedge, label %19

19:                                               ; preds = %10
  %20 = xor i64 %17, -1
  %21 = and i64 %14, %20
  store i64 %21, ptr %13, align 8, !tbaa !77
  br label %22

22:                                               ; preds = %26, %19
  %23 = load i32, ptr %7, align 4, !tbaa !35
  %24 = tail call i64 @read(i32 noundef %23, ptr noundef nonnull %4, i64 noundef 1024) #25
  %25 = icmp slt i64 %24, 0
  br i1 %25, label %26, label %.critedge.loopexit

26:                                               ; preds = %22
  %27 = tail call ptr @__errno_location() #28
  %28 = load i32, ptr %27, align 4, !tbaa !35
  %29 = icmp eq i32 %28, 4
  br i1 %29, label %22, label %.critedge.loopexit, !llvm.loop !104

.critedge.loopexit:                               ; preds = %22, %26
  %.pre = load i32, ptr %7, align 4, !tbaa !35
  br label %.critedge

.critedge:                                        ; preds = %.critedge.loopexit, %10
  %30 = phi i32 [ %.pre, %.critedge.loopexit ], [ %8, %10 ]
  %31 = icmp sgt i32 %30, 2
  br i1 %31, label %.preheader.i, label %kwsysProcessCleanupDescriptor.exit

.preheader.i:                                     ; preds = %.critedge, %35
  %32 = load i32, ptr %7, align 4, !tbaa !35
  %33 = tail call i32 @close(i32 noundef %32) #25
  %34 = icmp slt i32 %33, 0
  br i1 %34, label %35, label %.critedge.i

35:                                               ; preds = %.preheader.i
  %36 = tail call ptr @__errno_location() #28
  %37 = load i32, ptr %36, align 4, !tbaa !35
  %38 = icmp eq i32 %37, 4
  br i1 %38, label %.preheader.i, label %.critedge.i, !llvm.loop !94

.critedge.i:                                      ; preds = %35, %.preheader.i
  store i32 -1, ptr %7, align 4, !tbaa !35
  br label %kwsysProcessCleanupDescriptor.exit

kwsysProcessCleanupDescriptor.exit:               ; preds = %.critedge, %.critedge.i
  %39 = load i32, ptr %5, align 4, !tbaa !85
  %40 = add nsw i32 %39, -1
  store i32 %40, ptr %5, align 4, !tbaa !85
  br label %41

41:                                               ; preds = %6, %kwsysProcessCleanupDescriptor.exit
  %indvars.iv.next = add nuw nsw i64 %indvars.iv, 1
  %exitcond.not = icmp eq i64 %indvars.iv.next, 3
  br i1 %exitcond.not, label %42, label %6, !llvm.loop !105

42:                                               ; preds = %41
  ret void
}